; Function Attrs: nounwind sspstrong uwtable
define internal i64 @ripper_filename(i64 noundef %0) #0 {
  %2 = tail call ptr @rb_check_typeddata(i64 noundef %0, ptr noundef nonnull @parser_data_type) #5
  %3 = load ptr, ptr %2, align 8, !tbaa !18
  %4 = tail call i32 @rb_ruby_ripper_initialized_p(ptr noundef %3) #5
  %.not.i = icmp eq i32 %4, 0
  br i1 %.not.i, label %5, label %ripper_parser_params.exit

5:                                                ; preds = %1
  %6 = load i64, ptr @rb_eArgError, align 8, !tbaa !6
  tail call void (i64, ptr, ...) @rb_raise(i64 noundef %6, ptr noundef nonnull @.str.45) #6
  unreachable

ripper_parser_params.exit:                        ; preds = %1
  %7 = tail call i64 @rb_ruby_parser_ruby_sourcefile_string(ptr noundef %3) #5
  ret i64 %7
}